target datalayout = "e-m:e-p270:32:32-p271:32:32-p272:64:64-i64:64-i128:128-f80:128-n8:16:32:64-S128"
target triple = "x86_64-pc-linux-gnu"

@gBundle = internal global ptr null, align 8
@gInfoMessages = dso_local global ptr null, align 8
@gErrMessages = dso_local global ptr null, align 8
@.str = private unnamed_addr constant [26 x i8] c"UNDOCUMENTED ICU ERROR %d\00", align 1

; Function Attrs: nounwind uwtable
define internal ptr @fetchErrorName(i32 noundef %0) #0 {
  %2 = alloca ptr, align 8
  %3 = alloca i32, align 4
  store i32 %0, ptr %3, align 4, !tbaa !10
  %4 = load ptr, ptr @gInfoMessages, align 8, !tbaa !22
  %5 = icmp ne ptr %4, null
  br i1 %5, label %9, label %6

6:                                                ; preds = %1
  %7 = call noalias ptr @malloc(i64 noundef 72) #10
  store ptr %7, ptr @gInfoMessages, align 8, !tbaa !22
  %8 = load ptr, ptr @gInfoMessages, align 8, !tbaa !22
  call void @llvm.memset.p0.i64(ptr align 8 %8, i8 0, i64 72, i1 false)
  br label %9

9:                                                ; preds = %6, %1
  %10 = load ptr, ptr @gErrMessages, align 8, !tbaa !22
  %11 = icmp ne ptr %10, null
  br i1 %11, label %15, label %12

12:                                               ; preds = %9
  %13 = call noalias ptr @malloc(i64 noundef 534544) #10
  store ptr %13, ptr @gErrMessages, align 8, !tbaa !22
  %14 = load ptr, ptr @gErrMessages, align 8, !tbaa !22
  call void @llvm.memset.p0.i64(ptr align 8 %14, i8 0, i64 534544, i1 false)
  br label %15

15:                                               ; preds = %12, %9
  %16 = load i32, ptr %3, align 4, !tbaa !10
  %17 = icmp sge i32 %16, 0
  br i1 %17, label %18, label %24

18:                                               ; preds = %15
  %19 = load ptr, ptr @gErrMessages, align 8, !tbaa !22
  %20 = load i32, ptr %3, align 4, !tbaa !10
  %21 = sext i32 %20 to i64
  %22 = getelementptr inbounds ptr, ptr %19, i64 %21
  %23 = load ptr, ptr %22, align 8, !tbaa !16
  store ptr %23, ptr %2, align 8
  br label %31

24:                                               ; preds = %15
  %25 = load ptr, ptr @gInfoMessages, align 8, !tbaa !22
  %26 = load i32, ptr %3, align 4, !tbaa !10
  %27 = sub nsw i32 %26, -128
  %28 = sext i32 %27 to i64
  %29 = getelementptr inbounds ptr, ptr %25, i64 %28
  %30 = load ptr, ptr %29, align 8, !tbaa !16
  store ptr %30, ptr %2, align 8
  br label %31

31:                                               ; preds = %24, %18
  %32 = load ptr, ptr %2, align 8
  ret ptr %32
}

; Function Attrs: nounwind uwtable
define dso_local ptr @u_wmsg_errorName(i32 noundef %0) #0 {
  %2 = alloca ptr, align 8
  %3 = alloca i32, align 4
  %4 = alloca ptr, align 8
  %5 = alloca i32, align 4
  %6 = alloca i32, align 4
  %7 = alloca ptr, align 8
  %8 = alloca i32, align 4
  %9 = alloca ptr, align 8
  %10 = alloca [128 x i8], align 16
  store i32 %0, ptr %3, align 4, !tbaa !10
  call void @llvm.lifetime.start.p0(i64 8, ptr %4) #8
  call void @llvm.lifetime.start.p0(i64 4, ptr %5) #8
  call void @llvm.lifetime.start.p0(i64 4, ptr %6) #8
  store i32 0, ptr %6, align 4, !tbaa !10
  call void @llvm.lifetime.start.p0(i64 8, ptr %7) #8
  store ptr null, ptr %7, align 8, !tbaa !4
  %11 = load i32, ptr %3, align 4, !tbaa !10
  %12 = call ptr @fetchErrorName(i32 noundef %11)
  store ptr %12, ptr %4, align 8, !tbaa !16
  %13 = load ptr, ptr %4, align 8, !tbaa !16
  %14 = icmp ne ptr %13, null
  br i1 %14, label %15, label %17

15:                                               ; preds = %1
  %16 = load ptr, ptr %4, align 8, !tbaa !16
  store ptr %16, ptr %2, align 8
  store i32 1, ptr %8, align 4
  br label %78

17:                                               ; preds = %1
  %18 = load ptr, ptr @gBundle, align 8, !tbaa !12
  %19 = icmp eq ptr %18, null
  br i1 %19, label %20, label %21

20:                                               ; preds = %17
  store ptr null, ptr %4, align 8, !tbaa !16
  br label %35

21:                                               ; preds = %17
  call void @llvm.lifetime.start.p0(i64 8, ptr %9) #8
  %22 = load i32, ptr %3, align 4, !tbaa !10
  %23 = call ptr @u_errorName_77(i32 noundef %22)
  store ptr %23, ptr %9, align 8, !tbaa !4
  %24 = load ptr, ptr %9, align 8, !tbaa !4
  %25 = icmp ne ptr %24, null
  br i1 %25, label %26, label %34

26:                                               ; preds = %21
  %27 = load ptr, ptr @gBundle, align 8, !tbaa !12
  %28 = load ptr, ptr %9, align 8, !tbaa !4
  %29 = call ptr @ures_getStringByKey_77(ptr noundef %27, ptr noundef %28, ptr noundef %5, ptr noundef %6)
  store ptr %29, ptr %4, align 8, !tbaa !16
  %30 = load i32, ptr %6, align 4, !tbaa !10
  %31 = icmp sgt i32 %30, 0
  br i1 %31, label %32, label %33

32:                                               ; preds = %26
  store ptr null, ptr %4, align 8, !tbaa !16
  br label %33

33:                                               ; preds = %32, %26
  br label %34

34:                                               ; preds = %33, %21
  call void @llvm.lifetime.end.p0(i64 8, ptr %9) #8
  br label %35

35:                                               ; preds = %34, %20
  %36 = load ptr, ptr %4, align 8, !tbaa !16
  %37 = icmp eq ptr %36, null
  br i1 %37, label %38, label %60

38:                                               ; preds = %35
  call void @llvm.lifetime.start.p0(i64 128, ptr %10) #8
  %39 = load i32, ptr %3, align 4, !tbaa !10
  %40 = call ptr @u_errorName_77(i32 noundef %39)
  store ptr %40, ptr %7, align 8, !tbaa !4
  %41 = load ptr, ptr %7, align 8, !tbaa !4
  %42 = icmp ne ptr %41, null
  br i1 %42, label %48, label %43

43:                                               ; preds = %38
  %44 = getelementptr inbounds [128 x i8], ptr %10, i64 0, i64 0
  %45 = load i32, ptr %3, align 4, !tbaa !10
  %46 = call i32 (ptr, ptr, ...) @sprintf(ptr noundef %44, ptr noundef @.str, i32 noundef %45) #8
  %47 = getelementptr inbounds [128 x i8], ptr %10, i64 0, i64 0
  store ptr %47, ptr %7, align 8, !tbaa !4
  br label %48

48:                                               ; preds = %43, %38
  %49 = load ptr, ptr %7, align 8, !tbaa !4
  %50 = call i64 @strlen(ptr noundef %49) #9
  %51 = add i64 %50, 1
  %52 = mul i64 %51, 2
  %53 = call noalias ptr @malloc(i64 noundef %52) #10
  store ptr %53, ptr %4, align 8, !tbaa !16
  %54 = load ptr, ptr %7, align 8, !tbaa !4
  %55 = load ptr, ptr %4, align 8, !tbaa !16
  %56 = load ptr, ptr %7, align 8, !tbaa !4
  %57 = call i64 @strlen(ptr noundef %56) #9
  %58 = add i64 %57, 1
  %59 = trunc i64 %58 to i32
  call void @u_charsToUChars_77(ptr noundef %54, ptr noundef %55, i32 noundef %59)
  call void @llvm.lifetime.end.p0(i64 128, ptr %10) #8
  br label %60

60:                                               ; preds = %48, %35
  %61 = load i32, ptr %3, align 4, !tbaa !10
  %62 = icmp sge i32 %61, 0
  br i1 %62, label %63, label %69

63:                                               ; preds = %60
  %64 = load ptr, ptr %4, align 8, !tbaa !16
  %65 = load ptr, ptr @gErrMessages, align 8, !tbaa !22
  %66 = load i32, ptr %3, align 4, !tbaa !10
  %67 = sext i32 %66 to i64
  %68 = getelementptr inbounds ptr, ptr %65, i64 %67
  store ptr %64, ptr %68, align 8, !tbaa !16
  br label %76

69:                                               ; preds = %60
  %70 = load ptr, ptr %4, align 8, !tbaa !16
  %71 = load ptr, ptr @gInfoMessages, align 8, !tbaa !22
  %72 = load i32, ptr %3, align 4, !tbaa !10
  %73 = sub nsw i32 %72, -128
  %74 = sext i32 %73 to i64
  %75 = getelementptr inbounds ptr, ptr %71, i64 %74
  store ptr %70, ptr %75, align 8, !tbaa !16
  br label %76

76:                                               ; preds = %69, %63
  %77 = load ptr, ptr %4, align 8, !tbaa !16
  store ptr %77, ptr %2, align 8
  store i32 1, ptr %8, align 4
  br label %78

78:                                               ; preds = %76, %15
  call void @llvm.lifetime.end.p0(i64 8, ptr %7) #8
  call void @llvm.lifetime.end.p0(i64 4, ptr %6) #8
  call void @llvm.lifetime.end.p0(i64 4, ptr %5) #8
  call void @llvm.lifetime.end.p0(i64 8, ptr %4) #8
  %79 = load ptr, ptr %2, align 8
  ret ptr %79
}