; Function Attrs: nounwind uwtable
define dso_local ptr @u_wmsg_errorName(i32 noundef %0) local_unnamed_addr #0 {
  %2 = alloca i32, align 4
  %3 = alloca i32, align 4
  %4 = alloca [128 x i8], align 16
  call void @llvm.lifetime.start.p0(i64 4, ptr nonnull %2) #8
  call void @llvm.lifetime.start.p0(i64 4, ptr nonnull %3) #8
  store i32 0, ptr %3, align 4, !tbaa !4
  %5 = load ptr, ptr @gInfoMessages, align 8, !tbaa !17
  %.not.i = icmp eq ptr %5, null
  br i1 %.not.i, label %6, label %7

6:                                                ; preds = %1
  %calloc5.i = tail call dereferenceable_or_null(72) ptr @calloc(i64 1, i64 72)
  store ptr %calloc5.i, ptr @gInfoMessages, align 8, !tbaa !17
  br label %7

7:                                                ; preds = %6, %1
  %8 = phi ptr [ %calloc5.i, %6 ], [ %5, %1 ]
  %9 = load ptr, ptr @gErrMessages, align 8, !tbaa !17
  %.not4.i = icmp eq ptr %9, null
  br i1 %.not4.i, label %10, label %fetchErrorName.exit

10:                                               ; preds = %7
  %calloc.i = tail call dereferenceable_or_null(534544) ptr @calloc(i64 1, i64 534544)
  store ptr %calloc.i, ptr @gErrMessages, align 8, !tbaa !17
  br label %fetchErrorName.exit

fetchErrorName.exit:                              ; preds = %7, %10
  %11 = phi ptr [ %calloc.i, %10 ], [ %9, %7 ]
  %12 = zext nneg i32 %0 to i64
  %13 = getelementptr inbounds nuw ptr, ptr %11, i64 %12
  %14 = sext i32 %0 to i64
  %15 = getelementptr ptr, ptr %8, i64 %14
  %16 = getelementptr i8, ptr %15, i64 1024
  %17 = icmp slt i32 %0, 0
  %.0.in.i = select i1 %17, ptr %16, ptr %13
  %.0.i = load ptr, ptr %.0.in.i, align 8, !tbaa !11
  %.not = icmp eq ptr %.0.i, null
  br i1 %.not, label %18, label %48

18:                                               ; preds = %fetchErrorName.exit
  %19 = load ptr, ptr @gBundle, align 8, !tbaa !8
  %20 = icmp eq ptr %19, null
  br i1 %20, label %.thread, label %21

21:                                               ; preds = %18
  %22 = tail call ptr @u_errorName_77(i32 noundef %0) #8
  %.not28 = icmp eq ptr %22, null
  br i1 %.not28, label %.thread, label %23

23:                                               ; preds = %21
  %24 = load ptr, ptr @gBundle, align 8, !tbaa !8
  %25 = call ptr @ures_getStringByKey_77(ptr noundef %24, ptr noundef nonnull %22, ptr noundef nonnull %2, ptr noundef nonnull %3) #8
  %26 = load i32, ptr %3, align 4, !tbaa !4
  %27 = icmp sgt i32 %26, 0
  %28 = icmp eq ptr %25, null
  %or.cond = select i1 %27, i1 true, i1 %28
  br i1 %or.cond, label %.thread, label %39

.thread:                                          ; preds = %23, %21, %18
  call void @llvm.lifetime.start.p0(i64 128, ptr nonnull %4) #8
  %29 = call ptr @u_errorName_77(i32 noundef %0) #8
  %.not29 = icmp eq ptr %29, null
  br i1 %.not29, label %30, label %32

30:                                               ; preds = %.thread
  %31 = call i32 (ptr, ptr, ...) @sprintf(ptr noundef nonnull dereferenceable(1) %4, ptr noundef nonnull dereferenceable(1) @.str, i32 noundef %0) #8
  br label %32

32:                                               ; preds = %30, %.thread
  %.020 = phi ptr [ %29, %.thread ], [ %4, %30 ]
  %33 = call i64 @strlen(ptr noundef nonnull dereferenceable(1) %.020) #9
  %34 = shl i64 %33, 1
  %35 = add i64 %34, 2
  %36 = call noalias ptr @malloc(i64 noundef %35) #10
  %37 = trunc i64 %33 to i32
  %38 = add i32 %37, 1
  call void @u_charsToUChars_77(ptr noundef nonnull %.020, ptr noundef %36, i32 noundef %38) #8
  call void @llvm.lifetime.end.p0(i64 128, ptr nonnull %4) #8
  br label %39

39:                                               ; preds = %23, %32
  %.2 = phi ptr [ %36, %32 ], [ %25, %23 ]
  %40 = icmp sgt i32 %0, -1
  br i1 %40, label %41, label %44

41:                                               ; preds = %39
  %42 = load ptr, ptr @gErrMessages, align 8, !tbaa !17
  %43 = getelementptr inbounds nuw ptr, ptr %42, i64 %12
  store ptr %.2, ptr %43, align 8, !tbaa !11
  br label %48

44:                                               ; preds = %39
  %45 = load ptr, ptr @gInfoMessages, align 8, !tbaa !17
  %46 = getelementptr ptr, ptr %45, i64 %14
  %47 = getelementptr i8, ptr %46, i64 1024
  store ptr %.2, ptr %47, align 8, !tbaa !11
  br label %48

48:                                               ; preds = %41, %44, %fetchErrorName.exit
  %.0 = phi ptr [ %.0.i, %fetchErrorName.exit ], [ %.2, %44 ], [ %.2, %41 ]
  call void @llvm.lifetime.end.p0(i64 4, ptr nonnull %3) #8
  call void @llvm.lifetime.end.p0(i64 4, ptr nonnull %2) #8
  ret ptr %.0
}